; ModuleID = '6/1279.cpp'
source_filename = "6/1279.cpp"
target datalayout = "e-m:e-p270:32:32-p271:32:32-p272:64:64-i64:64-f80:128-n8:16:32:64-S128"
target triple = "x86_64-pc-linux-gnu"

%"class.std::ios_base::Init" = type { i8 }
%"class.std::basic_istream" = type { i32 (...)**, i64, %"class.std::basic_ios" }
%"class.std::basic_ios" = type { %"class.std::ios_base", %"class.std::basic_ostream"*, i8, i8, %"class.std::basic_streambuf"*, %"class.std::ctype"*, %"class.std::num_put"*, %"class.std::num_get"* }
%"class.std::ios_base" = type { i32 (...)**, i64, i64, i32, i32, i32, %"struct.std::ios_base::_Callback_list"*, %"struct.std::ios_base::_Words", [8 x %"struct.std::ios_base::_Words"], i32, %"struct.std::ios_base::_Words"*, %"class.std::locale" }
%"struct.std::ios_base::_Callback_list" = type { %"struct.std::ios_base::_Callback_list"*, void (i32, %"class.std::ios_base"*, i32)*, i32, i32 }
%"struct.std::ios_base::_Words" = type { i8*, i64 }
%"class.std::locale" = type { %"class.std::locale::_Impl"* }
%"class.std::locale::_Impl" = type { i32, %"class.std::locale::facet"**, i64, %"class.std::locale::facet"**, i8** }
%"class.std::locale::facet" = type <{ i32 (...)**, i32, [4 x i8] }>
%"class.std::basic_ostream" = type { i32 (...)**, %"class.std::basic_ios" }
%"class.std::basic_streambuf" = type { i32 (...)**, i8*, i8*, i8*, i8*, i8*, i8*, %"class.std::locale" }
%"class.std::ctype" = type <{ %"class.std::locale::facet.base", [4 x i8], %struct.__locale_struct*, i8, [7 x i8], i32*, i32*, i16*, i8, [256 x i8], [256 x i8], i8, [6 x i8] }>
%"class.std::locale::facet.base" = type <{ i32 (...)**, i32 }>
%struct.__locale_struct = type { [13 x %struct.__locale_data*], i16*, i32*, i32*, [13 x i8*] }
%struct.__locale_data = type opaque
%"class.std::num_put" = type { %"class.std::locale::facet.base", [4 x i8] }
%"class.std::num_get" = type { %"class.std::locale::facet.base", [4 x i8] }

@_ZStL8__ioinit = internal global %"class.std::ios_base::Init" zeroinitializer, align 1
@__dso_handle = external hidden global i8
@m = dso_local global [100 x [100 x i32]] zeroinitializer, align 16
@_ZSt3cin = external dso_local global %"class.std::basic_istream", align 8
@_ZSt4cout = external dso_local global %"class.std::basic_ostream", align 8
@llvm.global_ctors = appending global [1 x { i32, void ()*, i8* }] [{ i32, void ()*, i8* } { i32 65535, void ()* @_GLOBAL__sub_I_1279.cpp, i8* null }]

; Function Attrs: noinline uwtable
define internal void @__cxx_global_var_init() #0 section ".text.startup" {
  call void @_ZNSt8ios_base4InitC1Ev(%"class.std::ios_base::Init"* @_ZStL8__ioinit)
  %1 = call i32 @__cxa_atexit(void (i8*)* bitcast (void (%"class.std::ios_base::Init"*)* @_ZNSt8ios_base4InitD1Ev to void (i8*)*), i8* getelementptr inbounds (%"class.std::ios_base::Init", %"class.std::ios_base::Init"* @_ZStL8__ioinit, i32 0, i32 0), i8* @__dso_handle) #3
  ret void
}

declare dso_local void @_ZNSt8ios_base4InitC1Ev(%"class.std::ios_base::Init"*) unnamed_addr #1

; Function Attrs: nounwind
declare dso_local void @_ZNSt8ios_base4InitD1Ev(%"class.std::ios_base::Init"*) unnamed_addr #2

; Function Attrs: nounwind
declare dso_local i32 @__cxa_atexit(void (i8*)*, i8*, i8*) #3

; Function Attrs: noinline uwtable
define dso_local void @_Z1av() #0 {
  %1 = alloca i32, align 4
  %2 = alloca i32, align 4
  %3 = alloca i32, align 4
  %4 = alloca i32, align 4
  %5 = alloca i32*, align 8
  call void @llvm.memset.p0i8.i64(i8* align 16 bitcast ([100 x [100 x i32]]* @m to i8*), i8 0, i64 40000, i1 false)
  store i32 0, i32* %3, align 4
  store i32 0, i32* %4, align 4
  %6 = call dereferenceable(280) %"class.std::basic_istream"* @_ZNSirsERi(%"class.std::basic_istream"* @_ZSt3cin, i32* dereferenceable(4) %1)
  %7 = call dereferenceable(280) %"class.std::basic_istream"* @_ZNSirsERi(%"class.std::basic_istream"* %6, i32* dereferenceable(4) %2)
  store i32* getelementptr inbounds ([100 x [100 x i32]], [100 x [100 x i32]]* @m, i64 0, i64 0, i64 0), i32** %5, align 8
  br label %8

8:                                                ; preds = %87, %0
  %9 = load i32*, i32** %5, align 8
  %10 = load i32, i32* %1, align 4
  %11 = sub nsw i32 %10, 1
  %12 = sext i32 %11 to i64
  %13 = getelementptr inbounds [100 x [100 x i32]], [100 x [100 x i32]]* @m, i64 0, i64 %12
  %14 = getelementptr inbounds [100 x i32], [100 x i32]* %13, i64 0, i64 0
  %15 = load i32, i32* %2, align 4
  %16 = sext i32 %15 to i64
  %17 = getelementptr inbounds i32, i32* %14, i64 %16
  %18 = getelementptr inbounds i32, i32* %17, i64 -1
  %19 = icmp ule i32* %9, %18
  br i1 %19, label %20, label %90

20:                                               ; preds = %8
  %21 = load i32, i32* %3, align 4
  %22 = add nsw i32 %21, 1
  store i32 %22, i32* %3, align 4
  %23 = load i32*, i32** %5, align 8
  %24 = call dereferenceable(280) %"class.std::basic_istream"* @_ZNSirsERi(%"class.std::basic_istream"* @_ZSt3cin, i32* dereferenceable(4) %23)
  %25 = load i32, i32* %3, align 4
  %26 = icmp eq i32 %25, 1
  br i1 %26, label %31, label %27

27:                                               ; preds = %20
  %28 = load i32, i32* %3, align 4
  %29 = load i32, i32* %2, align 4
  %30 = icmp eq i32 %28, %29
  br i1 %30, label %31, label %36

31:                                               ; preds = %27, %20
  %32 = load i32*, i32** %5, align 8
  %33 = load i32, i32* %32, align 4
  %34 = load i32, i32* %4, align 4
  %35 = add nsw i32 %34, %33
  store i32 %35, i32* %4, align 4
  br label %75

36:                                               ; preds = %27
  %37 = load i32*, i32** %5, align 8
  %38 = load i32, i32* %2, align 4
  %39 = sext i32 %38 to i64
  %40 = getelementptr inbounds i32, i32* getelementptr inbounds ([100 x [100 x i32]], [100 x [100 x i32]]* @m, i64 0, i64 0, i64 0), i64 %39
  %41 = getelementptr inbounds i32, i32* %40, i64 -1
  %42 = icmp ule i32* %37, %41
  br i1 %42, label %43, label %48

43:                                               ; preds = %36
  %44 = load i32*, i32** %5, align 8
  %45 = load i32, i32* %44, align 4
  %46 = load i32, i32* %4, align 4
  %47 = add nsw i32 %46, %45
  store i32 %47, i32* %4, align 4
  br label %74

48:                                               ; preds = %36
  %49 = load i32, i32* %1, align 4
  %50 = sub nsw i32 %49, 1
  %51 = sext i32 %50 to i64
  %52 = getelementptr inbounds [100 x [100 x i32]], [100 x [100 x i32]]* @m, i64 0, i64 %51
  %53 = getelementptr inbounds [100 x i32], [100 x i32]* %52, i64 0, i64 0
  %54 = load i32*, i32** %5, align 8
  %55 = icmp ule i32* %53, %54
  br i1 %55, label %56, label %73

56:                                               ; preds = %48
  %57 = load i32*, i32** %5, align 8
  %58 = load i32, i32* %1, align 4
  %59 = sub nsw i32 %58, 1
  %60 = sext i32 %59 to i64
  %61 = getelementptr inbounds [100 x [100 x i32]], [100 x [100 x i32]]* @m, i64 0, i64 %60
  %62 = getelementptr inbounds [100 x i32], [100 x i32]* %61, i64 0, i64 0
  %63 = load i32, i32* %2, align 4
  %64 = sext i32 %63 to i64
  %65 = getelementptr inbounds i32, i32* %62, i64 %64
  %66 = getelementptr inbounds i32, i32* %65, i64 -1
  %67 = icmp ule i32* %57, %66
  br i1 %67, label %68, label %73

68:                                               ; preds = %56
  %69 = load i32*, i32** %5, align 8
  %70 = load i32, i32* %69, align 4
  %71 = load i32, i32* %4, align 4
  %72 = add nsw i32 %71, %70
  store i32 %72, i32* %4, align 4
  br label %73

73:                                               ; preds = %68, %56, %48
  br label %74

74:                                               ; preds = %73, %43
  br label %75

75:                                               ; preds = %74, %31
  %76 = load i32, i32* %3, align 4
  %77 = load i32, i32* %2, align 4
  %78 = icmp eq i32 %76, %77
  br i1 %78, label %79, label %86

79:                                               ; preds = %75
  %80 = load i32*, i32** %5, align 8
  %81 = getelementptr inbounds i32, i32* %80, i64 100
  %82 = load i32, i32* %2, align 4
  %83 = sext i32 %82 to i64
  %84 = sub i64 0, %83
  %85 = getelementptr inbounds i32, i32* %81, i64 %84
  store i32* %85, i32** %5, align 8
  store i32 0, i32* %3, align 4
  br label %86

86:                                               ; preds = %79, %75
  br label %87

87:                                               ; preds = %86
  %88 = load i32*, i32** %5, align 8
  %89 = getelementptr inbounds i32, i32* %88, i32 1
  store i32* %89, i32** %5, align 8
  br label %8

90:                                               ; preds = %8
  %91 = load i32, i32* %4, align 4
  %92 = call dereferenceable(272) %"class.std::basic_ostream"* @_ZNSolsEi(%"class.std::basic_ostream"* @_ZSt4cout, i32 %91)
  %93 = call dereferenceable(272) %"class.std::basic_ostream"* @_ZNSolsEPFRSoS_E(%"class.std::basic_ostream"* %92, %"class.std::basic_ostream"* (%"class.std::basic_ostream"*)* @_ZSt4endlIcSt11char_traitsIcEERSt13basic_ostreamIT_T0_ES6_)
  ret void
}

; Function Attrs: argmemonly nounwind willreturn
declare void @llvm.memset.p0i8.i64(i8* nocapture writeonly, i8, i64, i1 immarg) #4

declare dso_local dereferenceable(280) %"class.std::basic_istream"* @_ZNSirsERi(%"class.std::basic_istream"*, i32* dereferenceable(4)) #1

declare dso_local dereferenceable(272) %"class.std::basic_ostream"* @_ZNSolsEi(%"class.std::basic_ostream"*, i32) #1

declare dso_local dereferenceable(272) %"class.std::basic_ostream"* @_ZNSolsEPFRSoS_E(%"class.std::basic_ostream"*, %"class.std::basic_ostream"* (%"class.std::basic_ostream"*)*) #1

declare dso_local dereferenceable(272) %"class.std::basic_ostream"* @_ZSt4endlIcSt11char_traitsIcEERSt13basic_ostreamIT_T0_ES6_(%"class.std::basic_ostream"* dereferenceable(272)) #1

; Function Attrs: noinline norecurse uwtable
define dso_local i32 @main() #5 {
  %1 = alloca i32, align 4
  %2 = alloca i32, align 4
  %3 = alloca i32, align 4
  store i32 0, i32* %1, align 4
  %4 = call dereferenceable(280) %"class.std::basic_istream"* @_ZNSirsERi(%"class.std::basic_istream"* @_ZSt3cin, i32* dereferenceable(4) %2)
  store i32 0, i32* %3, align 4
  br label %5

5:                                                ; preds = %10, %0
  %6 = load i32, i32* %3, align 4
  %7 = load i32, i32* %2, align 4
  %8 = icmp slt i32 %6, %7
  br i1 %8, label %9, label %13

9:                                                ; preds = %5
  call void @_Z1av()
  br label %10

10:                                               ; preds = %9
  %11 = load i32, i32* %3, align 4
  %12 = add nsw i32 %11, 1
  store i32 %12, i32* %3, align 4
  br label %5

13:                                               ; preds = %5
  ret i32 0
}

; Function Attrs: noinline uwtable
define internal void @_GLOBAL__sub_I_1279.cpp() #0 section ".text.startup" {
  call void @__cxx_global_var_init()
  ret void
}


!llvm.module.flags = !{!0}
!llvm.ident = !{!1}

!0 = !{i32 1, !"wchar_size", i32 4}
!1 = !{!"clang version 10.0.0-4ubuntu1 "}
