; ModuleID = 'source-C-CXX/5/1279.cpp'
source_filename = "source-C-CXX/5/1279.cpp"
target datalayout = "e-m:e-p270:32:32-p271:32:32-p272:64:64-i64:64-f80:128-n8:16:32:64-S128"
target triple = "x86_64-pc-linux-gnu"

%"class.std::ios_base::Init" = type { i8 }
%"class.std::basic_istream" = type { i32 (...)**, i64, %"class.std::basic_ios" }
%"class.std::basic_ios" = type { %"class.std::ios_base", %"class.std::basic_ostream"*, i8, i8, %"class.std::basic_streambuf"*, %"class.std::ctype"*, %"class.std::num_put"*, %"class.std::num_get"* }
%"class.std::ios_base" = type { i32 (...)**, i64, i64, i32, i32, i32, %"struct.std::ios_base::_Callback_list"*, %"struct.std::ios_base::_Words", [8 x %"struct.std::ios_base::_Words"], i32, %"struct.std::ios_base::_Words"*, %"class.std::locale" }
%"struct.std::ios_base::_Callback_list" = type { %"struct.std::ios_base::_Callback_list"*, void (i32, %"class.std::ios_base"*, i32)*, i32, i32 }
%"struct.std::ios_base::_Words" = type { i8*, i64 }
%"class.std::locale" = type { %"class.std::locale::_Impl"* }
%"class.std::locale::_Impl" = type { i32, %"class.std::locale::facet"**, i64, %"class.std::locale::facet"**, i8** }
%"class.std::locale::facet" = type <{ i32 (...)**, i32, [4 x i8] }>
%"class.std::basic_ostream" = type { i32 (...)**, %"class.std::basic_ios" }
%"class.std::basic_streambuf" = type { i32 (...)**, i8*, i8*, i8*, i8*, i8*, i8*, %"class.std::locale" }
%"class.std::ctype" = type <{ %"class.std::locale::facet.base", [4 x i8], %struct.__locale_struct*, i8, [7 x i8], i32*, i32*, i16*, i8, [256 x i8], [256 x i8], i8, [6 x i8] }>
%"class.std::locale::facet.base" = type <{ i32 (...)**, i32 }>
%struct.__locale_struct = type { [13 x %struct.__locale_data*], i16*, i32*, i32*, [13 x i8*] }
%struct.__locale_data = type opaque
%"class.std::num_put" = type { %"class.std::locale::facet.base", [4 x i8] }
%"class.std::num_get" = type { %"class.std::locale::facet.base", [4 x i8] }

@_ZStL8__ioinit = internal global %"class.std::ios_base::Init" zeroinitializer, align 1
@__dso_handle = external hidden global i8
@m = dso_local global [100 x [100 x i32]] zeroinitializer, align 16
@_ZSt3cin = external global %"class.std::basic_istream", align 8
@_ZSt4cout = external global %"class.std::basic_ostream", align 8
@llvm.global_ctors = appending global [1 x { i32, void ()*, i8* }] [{ i32, void ()*, i8* } { i32 65535, void ()* @_GLOBAL__sub_I_1279.cpp, i8* null }]

declare void @_ZNSt8ios_base4InitC1Ev(%"class.std::ios_base::Init"* nonnull align 1 dereferenceable(1)) unnamed_addr #0

; Function Attrs: nounwind
declare void @_ZNSt8ios_base4InitD1Ev(%"class.std::ios_base::Init"* nonnull align 1 dereferenceable(1)) unnamed_addr #1

; Function Attrs: nofree nounwind
declare i32 @__cxa_atexit(void (i8*)*, i8*, i8*) local_unnamed_addr #2

; Function Attrs: mustprogress sspstrong uwtable
define dso_local void @_Z1av() local_unnamed_addr #3 {
  %1 = alloca i32, align 4
  %2 = alloca i32, align 4
  tail call void @llvm.memset.p0i8.i64(i8* noundef nonnull align 16 dereferenceable(40000) bitcast ([100 x [100 x i32]]* @m to i8*), i8 0, i64 40000, i1 false)
  %3 = bitcast i32* %1 to i8*
  call void @llvm.lifetime.start.p0i8(i64 4, i8* nonnull %3) #9
  %4 = bitcast i32* %2 to i8*
  call void @llvm.lifetime.start.p0i8(i64 4, i8* nonnull %4) #9
  %5 = call nonnull align 8 dereferenceable(16) %"class.std::basic_istream"* @_ZNSirsERi(%"class.std::basic_istream"* nonnull align 8 dereferenceable(16) @_ZSt3cin, i32* nonnull align 4 dereferenceable(4) %1)
  %6 = call nonnull align 8 dereferenceable(16) %"class.std::basic_istream"* @_ZNSirsERi(%"class.std::basic_istream"* nonnull align 8 dereferenceable(16) %5, i32* nonnull align 4 dereferenceable(4) %2)
  %7 = load i32, i32* %1, align 4, !tbaa !5
  %8 = add nsw i32 %7, -1
  %9 = sext i32 %8 to i64
  %10 = load i32, i32* %2, align 4, !tbaa !5
  %11 = sext i32 %10 to i64
  %12 = getelementptr inbounds [100 x [100 x i32]], [100 x [100 x i32]]* @m, i64 0, i64 %9, i64 %11
  %13 = getelementptr inbounds i32, i32* %12, i64 -1
  %14 = icmp ult i32* %13, getelementptr inbounds ([100 x [100 x i32]], [100 x [100 x i32]]* @m, i64 0, i64 0, i64 0)
  br i1 %14, label %66, label %15

15:                                               ; preds = %0, %51
  %16 = phi i32* [ %59, %51 ], [ getelementptr inbounds ([100 x [100 x i32]], [100 x [100 x i32]]* @m, i64 0, i64 0, i64 0), %0 ]
  %17 = phi i32 [ %54, %51 ], [ 0, %0 ]
  %18 = phi i32 [ %56, %51 ], [ 0, %0 ]
  %19 = add nsw i32 %18, 1
  %20 = call nonnull align 8 dereferenceable(16) %"class.std::basic_istream"* @_ZNSirsERi(%"class.std::basic_istream"* nonnull align 8 dereferenceable(16) @_ZSt3cin, i32* nonnull align 4 dereferenceable(4) %16)
  %21 = icmp eq i32 %18, 0
  %22 = load i32, i32* %2, align 4, !tbaa !5
  br i1 %21, label %25, label %23

23:                                               ; preds = %15
  %24 = icmp eq i32 %19, %22
  br i1 %24, label %25, label %30

25:                                               ; preds = %15, %23
  %26 = phi i32 [ %19, %23 ], [ %22, %15 ]
  %27 = load i32, i32* %16, align 4, !tbaa !5
  %28 = add nsw i32 %27, %17
  %29 = sext i32 %26 to i64
  br label %51

30:                                               ; preds = %23
  %31 = sext i32 %22 to i64
  %32 = getelementptr inbounds [100 x [100 x i32]], [100 x [100 x i32]]* @m, i64 0, i64 0, i64 %31
  %33 = getelementptr inbounds i32, i32* %32, i64 -1
  %34 = icmp ugt i32* %16, %33
  br i1 %34, label %38, label %35

35:                                               ; preds = %30
  %36 = load i32, i32* %16, align 4, !tbaa !5
  %37 = add nsw i32 %36, %17
  br label %51

38:                                               ; preds = %30
  %39 = load i32, i32* %1, align 4, !tbaa !5
  %40 = add nsw i32 %39, -1
  %41 = sext i32 %40 to i64
  %42 = getelementptr inbounds [100 x [100 x i32]], [100 x [100 x i32]]* @m, i64 0, i64 %41, i64 0
  %43 = icmp ugt i32* %42, %16
  br i1 %43, label %51, label %44

44:                                               ; preds = %38
  %45 = getelementptr inbounds [100 x [100 x i32]], [100 x [100 x i32]]* @m, i64 0, i64 %41, i64 %31
  %46 = getelementptr inbounds i32, i32* %45, i64 -1
  %47 = icmp ugt i32* %16, %46
  br i1 %47, label %51, label %48

48:                                               ; preds = %44
  %49 = load i32, i32* %16, align 4, !tbaa !5
  %50 = add nsw i32 %49, %17
  br label %51

51:                                               ; preds = %35, %48, %44, %38, %25
  %52 = phi i64 [ %31, %35 ], [ %31, %48 ], [ %31, %44 ], [ %31, %38 ], [ %29, %25 ]
  %53 = phi i32 [ %22, %35 ], [ %22, %48 ], [ %22, %44 ], [ %22, %38 ], [ %26, %25 ]
  %54 = phi i32 [ %37, %35 ], [ %50, %48 ], [ %17, %44 ], [ %17, %38 ], [ %28, %25 ]
  %55 = icmp eq i32 %19, %53
  %56 = select i1 %55, i32 0, i32 %19
  %57 = sub nsw i64 101, %52
  %58 = select i1 %55, i64 %57, i64 1
  %59 = getelementptr i32, i32* %16, i64 %58
  %60 = load i32, i32* %1, align 4, !tbaa !5
  %61 = add nsw i32 %60, -1
  %62 = sext i32 %61 to i64
  %63 = getelementptr inbounds [100 x [100 x i32]], [100 x [100 x i32]]* @m, i64 0, i64 %62, i64 %52
  %64 = getelementptr inbounds i32, i32* %63, i64 -1
  %65 = icmp ugt i32* %59, %64
  br i1 %65, label %66, label %15, !llvm.loop !9

66:                                               ; preds = %51, %0
  %67 = phi i32 [ 0, %0 ], [ %54, %51 ]
  %68 = call nonnull align 8 dereferenceable(8) %"class.std::basic_ostream"* @_ZNSolsEi(%"class.std::basic_ostream"* nonnull align 8 dereferenceable(8) @_ZSt4cout, i32 %67)
  %69 = bitcast %"class.std::basic_ostream"* %68 to i8**
  %70 = load i8*, i8** %69, align 8, !tbaa !11
  %71 = getelementptr i8, i8* %70, i64 -24
  %72 = bitcast i8* %71 to i64*
  %73 = load i64, i64* %72, align 8
  %74 = bitcast %"class.std::basic_ostream"* %68 to i8*
  %75 = add nsw i64 %73, 240
  %76 = getelementptr inbounds i8, i8* %74, i64 %75
  %77 = bitcast i8* %76 to %"class.std::ctype"**
  %78 = load %"class.std::ctype"*, %"class.std::ctype"** %77, align 8, !tbaa !13
  %79 = icmp eq %"class.std::ctype"* %78, null
  br i1 %79, label %80, label %81

80:                                               ; preds = %66
  call void @_ZSt16__throw_bad_castv() #10
  unreachable

81:                                               ; preds = %66
  %82 = getelementptr inbounds %"class.std::ctype", %"class.std::ctype"* %78, i64 0, i32 8
  %83 = load i8, i8* %82, align 8, !tbaa !17
  %84 = icmp eq i8 %83, 0
  br i1 %84, label %88, label %85

85:                                               ; preds = %81
  %86 = getelementptr inbounds %"class.std::ctype", %"class.std::ctype"* %78, i64 0, i32 9, i64 10
  %87 = load i8, i8* %86, align 1, !tbaa !19
  br label %94

88:                                               ; preds = %81
  call void @_ZNKSt5ctypeIcE13_M_widen_initEv(%"class.std::ctype"* nonnull align 8 dereferenceable(570) %78)
  %89 = bitcast %"class.std::ctype"* %78 to i8 (%"class.std::ctype"*, i8)***
  %90 = load i8 (%"class.std::ctype"*, i8)**, i8 (%"class.std::ctype"*, i8)*** %89, align 8, !tbaa !11
  %91 = getelementptr inbounds i8 (%"class.std::ctype"*, i8)*, i8 (%"class.std::ctype"*, i8)** %90, i64 6
  %92 = load i8 (%"class.std::ctype"*, i8)*, i8 (%"class.std::ctype"*, i8)** %91, align 8
  %93 = call signext i8 %92(%"class.std::ctype"* nonnull align 8 dereferenceable(570) %78, i8 signext 10)
  br label %94

94:                                               ; preds = %85, %88
  %95 = phi i8 [ %87, %85 ], [ %93, %88 ]
  %96 = call nonnull align 8 dereferenceable(8) %"class.std::basic_ostream"* @_ZNSo3putEc(%"class.std::basic_ostream"* nonnull align 8 dereferenceable(8) %68, i8 signext %95)
  %97 = call nonnull align 8 dereferenceable(8) %"class.std::basic_ostream"* @_ZNSo5flushEv(%"class.std::basic_ostream"* nonnull align 8 dereferenceable(8) %96)
  call void @llvm.lifetime.end.p0i8(i64 4, i8* nonnull %4) #9
  call void @llvm.lifetime.end.p0i8(i64 4, i8* nonnull %3) #9
  ret void
}

; Function Attrs: argmemonly mustprogress nofree nounwind willreturn writeonly
declare void @llvm.memset.p0i8.i64(i8* nocapture writeonly, i8, i64, i1 immarg) #4

; Function Attrs: argmemonly mustprogress nofree nosync nounwind willreturn
declare void @llvm.lifetime.start.p0i8(i64 immarg, i8* nocapture) #5

declare nonnull align 8 dereferenceable(16) %"class.std::basic_istream"* @_ZNSirsERi(%"class.std::basic_istream"* nonnull align 8 dereferenceable(16), i32* nonnull align 4 dereferenceable(4)) local_unnamed_addr #0

declare nonnull align 8 dereferenceable(8) %"class.std::basic_ostream"* @_ZNSolsEi(%"class.std::basic_ostream"* nonnull align 8 dereferenceable(8), i32) local_unnamed_addr #0

; Function Attrs: argmemonly mustprogress nofree nosync nounwind willreturn
declare void @llvm.lifetime.end.p0i8(i64 immarg, i8* nocapture) #5

; Function Attrs: mustprogress norecurse sspstrong uwtable
define dso_local i32 @main() local_unnamed_addr #6 {
  %1 = alloca i32, align 4
  %2 = bitcast i32* %1 to i8*
  call void @llvm.lifetime.start.p0i8(i64 4, i8* nonnull %2) #9
  %3 = call nonnull align 8 dereferenceable(16) %"class.std::basic_istream"* @_ZNSirsERi(%"class.std::basic_istream"* nonnull align 8 dereferenceable(16) @_ZSt3cin, i32* nonnull align 4 dereferenceable(4) %1)
  %4 = load i32, i32* %1, align 4, !tbaa !5
  %5 = icmp sgt i32 %4, 0
  br i1 %5, label %6, label %11

6:                                                ; preds = %0, %6
  %7 = phi i32 [ %8, %6 ], [ 0, %0 ]
  call void @_Z1av()
  %8 = add nuw nsw i32 %7, 1
  %9 = load i32, i32* %1, align 4, !tbaa !5
  %10 = icmp slt i32 %8, %9
  br i1 %10, label %6, label %11, !llvm.loop !20

11:                                               ; preds = %6, %0
  call void @llvm.lifetime.end.p0i8(i64 4, i8* nonnull %2) #9
  ret i32 0
}

declare nonnull align 8 dereferenceable(8) %"class.std::basic_ostream"* @_ZNSo3putEc(%"class.std::basic_ostream"* nonnull align 8 dereferenceable(8), i8 signext) local_unnamed_addr #0

declare nonnull align 8 dereferenceable(8) %"class.std::basic_ostream"* @_ZNSo5flushEv(%"class.std::basic_ostream"* nonnull align 8 dereferenceable(8)) local_unnamed_addr #0

; Function Attrs: noreturn
declare void @_ZSt16__throw_bad_castv() local_unnamed_addr #7

declare void @_ZNKSt5ctypeIcE13_M_widen_initEv(%"class.std::ctype"* nonnull align 8 dereferenceable(570)) local_unnamed_addr #0

; Function Attrs: sspstrong uwtable
define internal void @_GLOBAL__sub_I_1279.cpp() #8 section ".text.startup" {
  tail call void @_ZNSt8ios_base4InitC1Ev(%"class.std::ios_base::Init"* nonnull align 1 dereferenceable(1) @_ZStL8__ioinit)
  %1 = tail call i32 @__cxa_atexit(void (i8*)* bitcast (void (%"class.std::ios_base::Init"*)* @_ZNSt8ios_base4InitD1Ev to void (i8*)*), i8* getelementptr inbounds (%"class.std::ios_base::Init", %"class.std::ios_base::Init"* @_ZStL8__ioinit, i64 0, i32 0), i8* nonnull @__dso_handle) #9
  ret void
}


!llvm.module.flags = !{!0, !1, !2, !3}
!llvm.ident = !{!4}

!0 = !{i32 1, !"wchar_size", i32 4}
!1 = !{i32 7, !"PIC Level", i32 2}
!2 = !{i32 7, !"PIE Level", i32 2}
!3 = !{i32 7, !"uwtable", i32 1}
!4 = !{!"clang version 13.0.0"}
!5 = !{!6, !6, i64 0}
!6 = !{!"int", !7, i64 0}
!7 = !{!"omnipotent char", !8, i64 0}
!8 = !{!"Simple C++ TBAA"}
!9 = distinct !{!9, !10}
!10 = !{!"llvm.loop.mustprogress"}
!11 = !{!12, !12, i64 0}
!12 = !{!"vtable pointer", !8, i64 0}
!13 = !{!14, !15, i64 240}
!14 = !{!"_ZTSSt9basic_iosIcSt11char_traitsIcEE", !15, i64 216, !7, i64 224, !16, i64 225, !15, i64 232, !15, i64 240, !15, i64 248, !15, i64 256}
!15 = !{!"any pointer", !7, i64 0}
!16 = !{!"bool", !7, i64 0}
!17 = !{!18, !7, i64 56}
!18 = !{!"_ZTSSt5ctypeIcE", !15, i64 16, !16, i64 24, !15, i64 32, !15, i64 40, !15, i64 48, !7, i64 56, !7, i64 57, !7, i64 313, !7, i64 569}
!19 = !{!7, !7, i64 0}
!20 = distinct !{!20, !10}
